ccopy_reg
_reconstructor
p0
(csklearn.preprocessing._label
LabelEncoder
p1
c__builtin__
object
p2
Ntp3
Rp4
(dp5
Vclasses_
p6
cnumpy.core.multiarray
_reconstruct
p7
(cnumpy
ndarray
p8
(I0
tp9
c_codecs
encode
p10
(Vb
p11
Vlatin1
p12
tp13
Rp14
tp15
Rp16
(I1
(I30
tp17
cnumpy
dtype
p18
(VU30
p19
I00
I01
tp20
Rp21
(I3
V<
p22
NNNI120
I4
I8
tp23
bI00
g10
(Vb\u0000\u0000\u0000e\u0000\u0000\u0000a\u0000\u0000\u0000m\u0000\u0000\u0000i\u0000\u0000\u0000n\u0000\u0000\u0000g\u0000\u0000\u0000_\u0000\u0000\u0000f\u0000\u0000\u0000a\u0000\u0000\u0000c\u0000\u0000\u0000e\u0000\u0000\u0000_\u0000\u0000\u0000w\u0000\u0000\u0000i\u0000\u0000\u0000t\u0000\u0000\u0000h\u0000\u0000\u0000_\u0000\u0000\u0000s\u0000\u0000\u0000m\u0000\u0000\u0000i\u0000\u0000\u0000l\u0000\u0000\u0000i\u0000\u0000\u0000n\u0000\u0000\u0000g\u0000\u0000\u0000_\u0000\u0000\u0000e\u0000\u0000\u0000y\u0000\u0000\u0000e\u0000\u0000\u0000s\u0000\u0000\u0000c\u0000\u0000\u0000l\u0000\u0000\u0000a\u0000\u0000\u0000p\u0000\u0000\u0000p\u0000\u0000\u0000i\u0000\u0000\u0000n\u0000\u0000\u0000g\u0000\u0000\u0000_\u0000\u0000\u0000h\u0000\u0000\u0000a\u0000\u0000\u0000n\u0000\u0000\u0000d\u0000\u0000\u0000s\u0000\u0000\u0000\u0000\u0000\u0000\u0000\u0000\u0000\u0000\u0000\u0000\u0000\u0000\u0000\u0000\u0000\u0000\u0000\u0000\u0000\u0000\u0000\u0000\u0000\u0000\u0000\u0000\u0000\u0000\u0000\u0000\u0000\u0000\u0000\u0000\u0000\u0000\u0000\u0000\u0000\u0000\u0000\u0000\u0000\u0000\u0000\u0000\u0000\u0000\u0000\u0000\u0000\u0000\u0000\u0000\u0000\u0000\u0000\u0000\u0000\u0000\u0000\u0000\u0000\u0000\u0000c\u0000\u0000\u0000r\u0000\u0000\u0000y\u0000\u0000\u0000i\u0000\u0000\u0000n\u0000\u0000\u0000g\u0000\u0000\u0000_\u0000\u0000\u0000f\u0000\u0000\u0000a\u0000\u0000\u0000c\u0000\u0000\u0000e\u0000\u0000\u0000\u0000\u0000\u0000\u0000\u0000\u0000\u0000\u0000\u0000\u0000\u0000\u0000\u0000\u0000\u0000\u0000\u0000\u0000\u0000\u0000\u0000\u0000\u0000\u0000\u0000\u0000\u0000\u0000\u0000\u0000\u0000\u0000\u0000\u0000\u0000\u0000\u0000\u0000\u0000\u0000\u0000\u0000\u0000\u0000\u0000\u0000\u0000\u0000\u0000\u0000\u0000\u0000\u0000\u0000\u0000\u0000\u0000\u0000\u0000\u0000\u0000\u0000\u0000\u0000\u0000\u0000\u0000\u0000\u0000\u0000\u0000\u0000\u0000\u0000\u0000\u0000e\u0000\u0000\u0000y\u0000\u0000\u0000e\u0000\u0000\u0000s\u0000\u0000\u0000\u0000\u0000\u0000\u0000\u0000\u0000\u0000\u0000\u0000\u0000\u0000\u0000\u0000\u0000\u0000\u0000\u0000\u0000\u0000\u0000\u0000\u0000\u0000\u0000\u0000\u0000\u0000\u0000\u0000\u0000\u0000\u0000\u0000\u0000\u0000\u0000\u0000\u0000\u0000\u0000\u0000\u0000\u0000\u0000\u0000\u0000\u0000\u0000\u0000\u0000\u0000\u0000\u0000\u0000\u0000\u0000\u0000\u0000\u0000\u0000\u0000\u0000\u0000\u0000\u0000\u0000\u0000\u0000\u0000\u0000\u0000\u0000\u0000\u0000\u0000\u0000\u0000\u0000\u0000\u0000\u0000\u0000\u0000\u0000\u0000\u0000\u0000\u0000\u0000\u0000\u0000\u0000\u0000\u0000\u0000\u0000\u0000\u0000\u0000\u0000\u0000\u0000\u0000\u0000f\u0000\u0000\u0000a\u0000\u0000\u0000c\u0000\u0000\u0000e\u0000\u0000\u0000_\u0000\u0000\u0000b\u0000\u0000\u0000l\u0000\u0000\u0000o\u0000\u0000\u0000w\u0000\u0000\u0000i\u0000\u0000\u0000n\u0000\u0000\u0000g\u0000\u0000\u0000_\u0000\u0000\u0000a\u0000\u0000\u0000_\u0000\u0000\u0000k\u0000\u0000\u0000i\u0000\u0000\u0000s\u0000\u0000\u0000s\u0000\u0000\u0000\u0000\u0000\u0000\u0000\u0000\u0000\u0000\u0000\u0000\u0000\u0000\u0000\u0000\u0000\u0000\u0000\u0000\u0000\u0000\u0000\u0000\u0000\u0000\u0000\u0000\u0000\u0000\u0000\u0000\u0000\u0000\u0000\u0000\u0000\u0000\u0000\u0000\u0000\u0000\u0000\u0000\u0000\u0000\u0000f\u0000\u0000\u0000a\u0000\u0000\u0000c\u0000\u0000\u0000e\u0000\u0000\u0000_\u0000\u0000\u0000w\u0000\u0000\u0000i\u0000\u0000\u0000t\u0000\u0000\u0000h\u0000\u0000\u0000_\u0000\u0000\u0000r\u0000\u0000\u0000o\u0000\u0000\u0000l\u0000\u0000\u0000l\u0000\u0000\u0000i\u0000\u0000\u0000n\u0000\u0000\u0000g\u0000\u0000\u0000_\u0000\u0000\u0000e\u0000\u0000\u0000y\u0000\u0000\u0000e\u0000\u0000\u0000s\u0000\u0000\u0000\u0000\u0000\u0000\u0000\u0000\u0000\u0000\u0000\u0000\u0000\u0000\u0000\u0000\u0000\u0000\u0000\u0000\u0000\u0000\u0000\u0000\u0000\u0000\u0000\u0000\u0000\u0000\u0000\u0000\u0000\u0000\u0000f\u0000\u0000\u0000a\u0000\u0000\u0000c\u0000\u0000\u0000e\u0000\u0000\u0000_\u0000\u0000\u0000w\u0000\u0000\u0000i\u0000\u0000\u0000t\u0000\u0000\u0000h\u0000\u0000\u0000_\u0000\u0000\u0000t\u0000\u0000\u0000e\u0000\u0000\u0000a\u0000\u0000\u0000r\u0000\u0000\u0000s\u0000\u0000\u0000_\u0000\u0000\u0000o\u0000\u0000\u0000f\u0000\u0000\u0000_\u0000\u0000\u0000j\u0000\u0000\u0000o\u0000\u0000\u0000y\u0000\u0000\u0000\u0000\u0000\u0000\u0000\u0000\u0000\u0000\u0000\u0000\u0000\u0000\u0000\u0000\u0000\u0000\u0000\u0000\u0000\u0000\u0000\u0000\u0000\u0000\u0000\u0000\u0000\u0000\u0000\u0000\u0000\u0000\u0000f\u0000\u0000\u0000i\u0000\u0000\u0000r\u0000\u0000\u0000e\u0000\u0000\u0000\u0000\u0000\u0000\u0000\u0000\u0000\u0000\u0000\u0000\u0000\u0000\u0000\u0000\u0000\u0000\u0000\u0000\u0000\u0000\u0000\u0000\u0000\u0000\u0000\u0000\u0000\u0000\u0000\u0000\u0000\u0000\u0000\u0000\u0000\u0000\u0000\u0000\u0000\u0000\u0000\u0000\u0000\u0000\u0000\u0000\u0000\u0000\u0000\u0000\u0000\u0000\u0000\u0000\u0000\u0000\u0000\u0000\u0000\u0000\u0000\u0000\u0000\u0000\u0000\u0000\u0000\u0000\u0000\u0000\u0000\u0000\u0000\u0000\u0000\u0000\u0000\u0000\u0000\u0000\u0000\u0000\u0000\u0000\u0000\u0000\u0000\u0000\u0000\u0000\u0000\u0000\u0000\u0000\u0000\u0000\u0000\u0000\u0000\u0000\u0000\u0000\u0000\u0000\u0000f\u0000\u0000\u0000l\u0000\u0000\u0000e\u0000\u0000\u0000x\u0000\u0000\u0000e\u0000\u0000\u0000d\u0000\u0000\u0000_\u0000\u0000\u0000b\u0000\u0000\u0000i\u0000\u0000\u0000c\u0000\u0000\u0000e\u0000\u0000\u0000p\u0000\u0000\u0000s\u0000\u0000\u0000\u0000\u0000\u0000\u0000\u0000\u0000\u0000\u0000\u0000\u0000\u0000\u0000\u0000\u0000\u0000\u0000\u0000\u0000\u0000\u0000\u0000\u0000\u0000\u0000\u0000\u0000\u0000\u0000\u0000\u0000\u0000\u0000\u0000\u0000\u0000\u0000\u0000\u0000\u0000\u0000\u0000\u0000\u0000\u0000\u0000\u0000\u0000\u0000\u0000\u0000\u0000\u0000\u0000\u0000\u0000\u0000\u0000\u0000\u0000\u0000\u0000\u0000\u0000\u0000\u0000\u0000\u0000\u0000f\u0000\u0000\u0000l\u0000\u0000\u0000u\u0000\u0000\u0000s\u0000\u0000\u0000h\u0000\u0000\u0000e\u0000\u0000\u0000d\u0000\u0000\u0000_\u0000\u0000\u0000f\u0000\u0000\u0000a\u0000\u0000\u0000c\u0000\u0000\u0000e\u0000\u0000\u0000\u0000\u0000\u0000\u0000\u0000\u0000\u0000\u0000\u0000\u0000\u0000\u0000\u0000\u0000\u0000\u0000\u0000\u0000\u0000\u0000\u0000\u0000\u0000\u0000\u0000\u0000\u0000\u0000\u0000\u0000\u0000\u0000\u0000\u0000\u0000\u0000\u0000\u0000\u0000\u0000\u0000\u0000\u0000\u0000\u0000\u0000\u0000\u0000\u0000\u0000\u0000\u0000\u0000\u0000\u0000\u0000\u0000\u0000\u0000\u0000\u0000\u0000\u0000\u0000\u0000\u0000\u0000\u0000\u0000\u0000\u0000\u0000f\u0000\u0000\u0000o\u0000\u0000\u0000l\u0000\u0000\u0000d\u0000\u0000\u0000e\u0000\u0000\u0000d\u0000\u0000\u0000_\u0000\u0000\u0000h\u0000\u0000\u0000a\u0000\u0000\u0000n\u0000\u0000\u0000d\u0000\u0000\u0000s\u0000\u0000\u0000\u0000\u0000\u0000\u0000\u0000\u0000\u0000\u0000\u0000\u0000\u0000\u0000\u0000\u0000\u0000\u0000\u0000\u0000\u0000\u0000\u0000\u0000\u0000\u0000\u0000\u0000\u0000\u0000\u0000\u0000\u0000\u0000\u0000\u0000\u0000\u0000\u0000\u0000\u0000\u0000\u0000\u0000\u0000\u0000\u0000\u0000\u0000\u0000\u0000\u0000\u0000\u0000\u0000\u0000\u0000\u0000\u0000\u0000\u0000\u0000\u0000\u0000\u0000\u0000\u0000\u0000\u0000\u0000\u0000\u0000\u0000\u0000h\u0000\u0000\u0000u\u0000\u0000\u0000n\u0000\u0000\u0000d\u0000\u0000\u0000r\u0000\u0000\u0000e\u0000\u0000\u0000d\u0000\u0000\u0000_\u0000\u0000\u0000p\u0000\u0000\u0000o\u0000\u0000\u0000i\u0000\u0000\u0000n\u0000\u0000\u0000t\u0000\u0000\u0000s\u0000\u0000\u0000\u0000\u0000\u0000\u0000\u0000\u0000\u0000\u0000\u0000\u0000\u0000\u0000\u0000\u0000\u0000\u0000\u0000\u0000\u0000\u0000\u0000\u0000\u0000\u0000\u0000\u0000\u0000\u0000\u0000\u0000\u0000\u0000\u0000\u0000\u0000\u0000\u0000\u0000\u0000\u0000\u0000\u0000\u0000\u0000\u0000\u0000\u0000\u0000\u0000\u0000\u0000\u0000\u0000\u0000\u0000\u0000\u0000\u0000\u0000\u0000\u0000\u0000\u0000\u0000l\u0000\u0000\u0000o\u0000\u0000\u0000u\u0000\u0000\u0000d\u0000\u0000\u0000l\u0000\u0000\u0000y\u0000\u0000\u0000_\u0000\u0000\u0000c\u0000\u0000\u0000r\u0000\u0000\u0000y\u0000\u0000\u0000i\u0000\u0000\u0000n\u0000\u0000\u0000g\u0000\u0000\u0000_\u0000\u0000\u0000f\u0000\u0000\u0000a\u0000\u0000\u0000c\u0000\u0000\u0000e\u0000\u0000\u0000\u0000\u0000\u0000\u0000\u0000\u0000\u0000\u0000\u0000\u0000\u0000\u0000\u0000\u0000\u0000\u0000\u0000\u0000\u0000\u0000\u0000\u0000\u0000\u0000\u0000\u0000\u0000\u0000\u0000\u0000\u0000\u0000\u0000\u0000\u0000\u0000\u0000\u0000\u0000\u0000\u0000\u0000\u0000\u0000\u0000\u0000\u0000\u0000p\u0000\u0000\u0000a\u0000\u0000\u0000r\u0000\u0000\u0000t\u0000\u0000\u0000y\u0000\u0000\u0000_\u0000\u0000\u0000p\u0000\u0000\u0000o\u0000\u0000\u0000p\u0000\u0000\u0000p\u0000\u0000\u0000e\u0000\u0000\u0000r\u0000\u0000\u0000\u0000\u0000\u0000\u0000\u0000\u0000\u0000\u0000\u0000\u0000\u0000\u0000\u0000\u0000\u0000\u0000\u0000\u0000\u0000\u0000\u0000\u0000\u0000\u0000\u0000\u0000\u0000\u0000\u0000\u0000\u0000\u0000\u0000\u0000\u0000\u0000\u0000\u0000\u0000\u0000\u0000\u0000\u0000\u0000\u0000\u0000\u0000\u0000\u0000\u0000\u0000\u0000\u0000\u0000\u0000\u0000\u0000\u0000\u0000\u0000\u0000\u0000\u0000\u0000\u0000\u0000\u0000\u0000\u0000\u0000\u0000\u0000p\u0000\u0000\u0000e\u0000\u0000\u0000r\u0000\u0000\u0000s\u0000\u0000\u0000o\u0000\u0000\u0000n\u0000\u0000\u0000_\u0000\u0000\u0000f\u0000\u0000\u0000a\u0000\u0000\u0000c\u0000\u0000\u0000e\u0000\u0000\u0000p\u0000\u0000\u0000a\u0000\u0000\u0000l\u0000\u0000\u0000m\u0000\u0000\u0000i\u0000\u0000\u0000n\u0000\u0000\u0000g\u0000\u0000\u0000\u0000\u0000\u0000\u0000\u0000\u0000\u0000\u0000\u0000\u0000\u0000\u0000\u0000\u0000\u0000\u0000\u0000\u0000\u0000\u0000\u0000\u0000\u0000\u0000\u0000\u0000\u0000\u0000\u0000\u0000\u0000\u0000\u0000\u0000\u0000\u0000\u0000\u0000\u0000\u0000\u0000\u0000\u0000\u0000\u0000\u0000\u0000\u0000p\u0000\u0000\u0000o\u0000\u0000\u0000l\u0000\u0000\u0000i\u0000\u0000\u0000c\u0000\u0000\u0000e\u0000\u0000\u0000_\u0000\u0000\u0000c\u0000\u0000\u0000a\u0000\u0000\u0000r\u0000\u0000\u0000_\u0000\u0000\u0000l\u0000\u0000\u0000i\u0000\u0000\u0000g\u0000\u0000\u0000h\u0000\u0000\u0000t\u0000\u0000\u0000\u0000\u0000\u0000\u0000\u0000\u0000\u0000\u0000\u0000\u0000\u0000\u0000\u0000\u0000\u0000\u0000\u0000\u0000\u0000\u0000\u0000\u0000\u0000\u0000\u0000\u0000\u0000\u0000\u0000\u0000\u0000\u0000\u0000\u0000\u0000\u0000\u0000\u0000\u0000\u0000\u0000\u0000\u0000\u0000\u0000\u0000\u0000\u0000\u0000\u0000\u0000\u0000\u0000\u0000\u0000\u0000r\u0000\u0000\u0000a\u0000\u0000\u0000i\u0000\u0000\u0000s\u0000\u0000\u0000i\u0000\u0000\u0000n\u0000\u0000\u0000g\u0000\u0000\u0000_\u0000\u0000\u0000h\u0000\u0000\u0000a\u0000\u0000\u0000n\u0000\u0000\u0000d\u0000\u0000\u0000s\u0000\u0000\u0000\u0000\u0000\u0000\u0000\u0000\u0000\u0000\u0000\u0000\u0000\u0000\u0000\u0000\u0000\u0000\u0000\u0000\u0000\u0000\u0000\u0000\u0000\u0000\u0000\u0000\u0000\u0000\u0000\u0000\u0000\u0000\u0000\u0000\u0000\u0000\u0000\u0000\u0000\u0000\u0000\u0000\u0000\u0000\u0000\u0000\u0000\u0000\u0000\u0000\u0000\u0000\u0000\u0000\u0000\u0000\u0000\u0000\u0000\u0000\u0000\u0000\u0000\u0000\u0000\u0000\u0000\u0000\u0000r\u0000\u0000\u0000e\u0000\u0000\u0000d\u0000\u0000\u0000_\u0000\u0000\u0000h\u0000\u0000\u0000e\u0000\u0000\u0000a\u0000\u0000\u0000r\u0000\u0000\u0000t\u0000\u0000\u0000\u0000\u0000\u0000\u0000\u0000\u0000\u0000\u0000\u0000\u0000\u0000\u0000\u0000\u0000\u0000\u0000\u0000\u0000\u0000\u0000\u0000\u0000\u0000\u0000\u0000\u0000\u0000\u0000\u0000\u0000\u0000\u0000\u0000\u0000\u0000\u0000\u0000\u0000\u0000\u0000\u0000\u0000\u0000\u0000\u0000\u0000\u0000\u0000\u0000\u0000\u0000\u0000\u0000\u0000\u0000\u0000\u0000\u0000\u0000\u0000\u0000\u0000\u0000\u0000\u0000\u0000\u0000\u0000\u0000\u0000\u0000\u0000\u0000\u0000\u0000\u0000\u0000\u0000\u0000\u0000\u0000\u0000\u0000\u0000r\u0000\u0000\u0000o\u0000\u0000\u0000l\u0000\u0000\u0000l\u0000\u0000\u0000i\u0000\u0000\u0000n\u0000\u0000\u0000g\u0000\u0000\u0000_\u0000\u0000\u0000o\u0000\u0000\u0000n\u0000\u0000\u0000_\u0000\u0000\u0000t\u0000\u0000\u0000h\u0000\u0000\u0000e\u0000\u0000\u0000_\u0000\u0000\u0000f\u0000\u0000\u0000l\u0000\u0000\u0000o\u0000\u0000\u0000o\u0000\u0000\u0000r\u0000\u0000\u0000_\u0000\u0000\u0000l\u0000\u0000\u0000a\u0000\u0000\u0000u\u0000\u0000\u0000g\u0000\u0000\u0000h\u0000\u0000\u0000i\u0000\u0000\u0000n\u0000\u0000\u0000g\u0000\u0000\u0000\u0000\u0000\u0000\u0000s\u0000\u0000\u0000m\u0000\u0000\u0000i\u0000\u0000\u0000l\u0000\u0000\u0000i\u0000\u0000\u0000n\u0000\u0000\u0000g\u0000\u0000\u0000_\u0000\u0000\u0000f\u0000\u0000\u0000a\u0000\u0000\u0000c\u0000\u0000\u0000e\u0000\u0000\u0000_\u0000\u0000\u0000w\u0000\u0000\u0000i\u0000\u0000\u0000t\u0000\u0000\u0000h\u0000\u0000\u0000_\u0000\u0000\u0000h\u0000\u0000\u0000e\u0000\u0000\u0000a\u0000\u0000\u0000r\u0000\u0000\u0000t\u0000\u0000\u0000-\u0000\u0000\u0000e\u0000\u0000\u0000y\u0000\u0000\u0000e\u0000\u0000\u0000s\u0000\u0000\u0000\u0000\u0000\u0000\u0000\u0000\u0000\u0000\u0000s\u0000\u0000\u0000m\u0000\u0000\u0000i\u0000\u0000\u0000l\u0000\u0000\u0000i\u0000\u0000\u0000n\u0000\u0000\u0000g\u0000\u0000\u0000_\u0000\u0000\u0000f\u0000\u0000\u0000a\u0000\u0000\u0000c\u0000\u0000\u0000e\u0000\u0000\u0000_\u0000\u0000\u0000w\u0000\u0000\u0000i\u0000\u0000\u0000t\u0000\u0000\u0000h\u0000\u0000\u0000_\u0000\u0000\u0000s\u0000\u0000\u0000m\u0000\u0000\u0000i\u0000\u0000\u0000l\u0000\u0000\u0000i\u0000\u0000\u0000n\u0000\u0000\u0000g\u0000\u0000\u0000_\u0000\u0000\u0000e\u0000\u0000\u0000y\u0000\u0000\u0000e\u0000\u0000\u0000s\u0000\u0000\u0000s\u0000\u0000\u0000m\u0000\u0000\u0000i\u0000\u0000\u0000l\u0000\u0000\u0000i\u0000\u0000\u0000n\u0000\u0000\u0000g\u0000\u0000\u0000_\u0000\u0000\u0000f\u0000\u0000\u0000a\u0000\u0000\u0000c\u0000\u0000\u0000e\u0000\u0000\u0000_\u0000\u0000\u0000w\u0000\u0000\u0000i\u0000\u0000\u0000t\u0000\u0000\u0000h\u0000\u0000\u0000_\u0000\u0000\u0000s\u0000\u0000\u0000u\u0000\u0000\u0000n\u0000\u0000\u0000g\u0000\u0000\u0000l\u0000\u0000\u0000a\u0000\u0000\u0000s\u0000\u0000\u0000s\u0000\u0000\u0000e\u0000\u0000\u0000s\u0000\u0000\u0000\u0000\u0000\u0000\u0000\u0000\u0000\u0000\u0000s\u0000\u0000\u0000p\u0000\u0000\u0000a\u0000\u0000\u0000r\u0000\u0000\u0000k\u0000\u0000\u0000l\u0000\u0000\u0000e\u0000\u0000\u0000s\u0000\u0000\u0000\u0000\u0000\u0000\u0000\u0000\u0000\u0000\u0000\u0000\u0000\u0000\u0000\u0000\u0000\u0000\u0000\u0000\u0000\u0000\u0000\u0000\u0000\u0000\u0000\u0000\u0000\u0000\u0000\u0000\u0000\u0000\u0000\u0000\u0000\u0000\u0000\u0000\u0000\u0000\u0000\u0000\u0000\u0000\u0000\u0000\u0000\u0000\u0000\u0000\u0000\u0000\u0000\u0000\u0000\u0000\u0000\u0000\u0000\u0000\u0000\u0000\u0000\u0000\u0000\u0000\u0000\u0000\u0000\u0000\u0000\u0000\u0000\u0000\u0000\u0000\u0000\u0000\u0000\u0000\u0000\u0000\u0000\u0000\u0000\u0000\u0000\u0000\u0000s\u0000\u0000\u0000p\u0000\u0000\u0000a\u0000\u0000\u0000r\u0000\u0000\u0000k\u0000\u0000\u0000l\u0000\u0000\u0000i\u0000\u0000\u0000n\u0000\u0000\u0000g\u0000\u0000\u0000_\u0000\u0000\u0000h\u0000\u0000\u0000e\u0000\u0000\u0000a\u0000\u0000\u0000r\u0000\u0000\u0000t\u0000\u0000\u0000\u0000\u0000\u0000\u0000\u0000\u0000\u0000\u0000\u0000\u0000\u0000\u0000\u0000\u0000\u0000\u0000\u0000\u0000\u0000\u0000\u0000\u0000\u0000\u0000\u0000\u0000\u0000\u0000\u0000\u0000\u0000\u0000\u0000\u0000\u0000\u0000\u0000\u0000\u0000\u0000\u0000\u0000\u0000\u0000\u0000\u0000\u0000\u0000\u0000\u0000\u0000\u0000\u0000\u0000\u0000\u0000\u0000\u0000\u0000\u0000t\u0000\u0000\u0000h\u0000\u0000\u0000i\u0000\u0000\u0000n\u0000\u0000\u0000k\u0000\u0000\u0000i\u0000\u0000\u0000n\u0000\u0000\u0000g\u0000\u0000\u0000_\u0000\u0000\u0000f\u0000\u0000\u0000a\u0000\u0000\u0000c\u0000\u0000\u0000e\u0000\u0000\u0000\u0000\u0000\u0000\u0000\u0000\u0000\u0000\u0000\u0000\u0000\u0000\u0000\u0000\u0000\u0000\u0000\u0000\u0000\u0000\u0000\u0000\u0000\u0000\u0000\u0000\u0000\u0000\u0000\u0000\u0000\u0000\u0000\u0000\u0000\u0000\u0000\u0000\u0000\u0000\u0000\u0000\u0000\u0000\u0000\u0000\u0000\u0000\u0000\u0000\u0000\u0000\u0000\u0000\u0000\u0000\u0000\u0000\u0000\u0000\u0000\u0000\u0000\u0000\u0000\u0000\u0000\u0000\u0000t\u0000\u0000\u0000h\u0000\u0000\u0000u\u0000\u0000\u0000m\u0000\u0000\u0000b\u0000\u0000\u0000s\u0000\u0000\u0000_\u0000\u0000\u0000u\u0000\u0000\u0000p\u0000\u0000\u0000\u0000\u0000\u0000\u0000\u0000\u0000\u0000\u0000\u0000\u0000\u0000\u0000\u0000\u0000\u0000\u0000\u0000\u0000\u0000\u0000\u0000\u0000\u0000\u0000\u0000\u0000\u0000\u0000\u0000\u0000\u0000\u0000\u0000\u0000\u0000\u0000\u0000\u0000\u0000\u0000\u0000\u0000\u0000\u0000\u0000\u0000\u0000\u0000\u0000\u0000\u0000\u0000\u0000\u0000\u0000\u0000\u0000\u0000\u0000\u0000\u0000\u0000\u0000\u0000\u0000\u0000\u0000\u0000\u0000\u0000\u0000\u0000\u0000\u0000\u0000\u0000\u0000\u0000\u0000\u0000\u0000\u0000\u0000\u0000t\u0000\u0000\u0000r\u0000\u0000\u0000o\u0000\u0000\u0000p\u0000\u0000\u0000h\u0000\u0000\u0000y\u0000\u0000\u0000\u0000\u0000\u0000\u0000\u0000\u0000\u0000\u0000\u0000\u0000\u0000\u0000\u0000\u0000\u0000\u0000\u0000\u0000\u0000\u0000\u0000\u0000\u0000\u0000\u0000\u0000\u0000\u0000\u0000\u0000\u0000\u0000\u0000\u0000\u0000\u0000\u0000\u0000\u0000\u0000\u0000\u0000\u0000\u0000\u0000\u0000\u0000\u0000\u0000\u0000\u0000\u0000\u0000\u0000\u0000\u0000\u0000\u0000\u0000\u0000\u0000\u0000\u0000\u0000\u0000\u0000\u0000\u0000\u0000\u0000\u0000\u0000\u0000\u0000\u0000\u0000\u0000\u0000\u0000\u0000\u0000\u0000\u0000\u0000\u0000\u0000\u0000\u0000\u0000\u0000\u0000\u0000\u0000\u0000\u0000\u0000t\u0000\u0000\u0000w\u0000\u0000\u0000o\u0000\u0000\u0000_\u0000\u0000\u0000h\u0000\u0000\u0000e\u0000\u0000\u0000a\u0000\u0000\u0000r\u0000\u0000\u0000t\u0000\u0000\u0000s\u0000\u0000\u0000\u0000\u0000\u0000\u0000\u0000\u0000\u0000\u0000\u0000\u0000\u0000\u0000\u0000\u0000\u0000\u0000\u0000\u0000\u0000\u0000\u0000\u0000\u0000\u0000\u0000\u0000\u0000\u0000\u0000\u0000\u0000\u0000\u0000\u0000\u0000\u0000\u0000\u0000\u0000\u0000\u0000\u0000\u0000\u0000\u0000\u0000\u0000\u0000\u0000\u0000\u0000\u0000\u0000\u0000\u0000\u0000\u0000\u0000\u0000\u0000\u0000\u0000\u0000\u0000\u0000\u0000\u0000\u0000\u0000\u0000\u0000\u0000\u0000\u0000\u0000\u0000\u0000\u0000\u0000\u0000w\u0000\u0000\u0000e\u0000\u0000\u0000a\u0000\u0000\u0000r\u0000\u0000\u0000y\u0000\u0000\u0000_\u0000\u0000\u0000f\u0000\u0000\u0000a\u0000\u0000\u0000c\u0000\u0000\u0000e\u0000\u0000\u0000\u0000\u0000\u0000\u0000\u0000\u0000\u0000\u0000\u0000\u0000\u0000\u0000\u0000\u0000\u0000\u0000\u0000\u0000\u0000\u0000\u0000\u0000\u0000\u0000\u0000\u0000\u0000\u0000\u0000\u0000\u0000\u0000\u0000\u0000\u0000\u0000\u0000\u0000\u0000\u0000\u0000\u0000\u0000\u0000\u0000\u0000\u0000\u0000\u0000\u0000\u0000\u0000\u0000\u0000\u0000\u0000\u0000\u0000\u0000\u0000\u0000\u0000\u0000\u0000\u0000\u0000\u0000\u0000\u0000\u0000\u0000\u0000\u0000\u0000\u0000\u0000\u0000\u0000\u0000\u0000w\u0000\u0000\u0000i\u0000\u0000\u0000n\u0000\u0000\u0000k\u0000\u0000\u0000i\u0000\u0000\u0000n\u0000\u0000\u0000g\u0000\u0000\u0000_\u0000\u0000\u0000f\u0000\u0000\u0000a\u0000\u0000\u0000c\u0000\u0000\u0000e\u0000\u0000\u0000\u0000\u0000\u0000\u0000\u0000\u0000\u0000\u0000\u0000\u0000\u0000\u0000\u0000\u0000\u0000\u0000\u0000\u0000\u0000\u0000\u0000\u0000\u0000\u0000\u0000\u0000\u0000\u0000\u0000\u0000\u0000\u0000\u0000\u0000\u0000\u0000\u0000\u0000\u0000\u0000\u0000\u0000\u0000\u0000\u0000\u0000\u0000\u0000\u0000\u0000\u0000\u0000\u0000\u0000\u0000\u0000\u0000\u0000\u0000\u0000\u0000\u0000\u0000\u0000\u0000\u0000\u0000\u0000\u0000\u0000\u0000\u0000
p24
g12
tp25
Rp26
tp27
bsV_sklearn_version
p28
V1.0.2
p29
sb.